; ModuleID = '50/1008.c'
source_filename = "50/1008.c"
target datalayout = "e-m:e-p270:32:32-p271:32:32-p272:64:64-i64:64-f80:128-n8:16:32:64-S128"
target triple = "x86_64-pc-linux-gnu"

@__const.main.a = private unnamed_addr constant [12 x i32] [i32 12, i32 43, i32 71, i32 102, i32 132, i32 163, i32 193, i32 224, i32 255, i32 285, i32 316, i32 346], align 16
@.str = private unnamed_addr constant [3 x i8] c"%d\00", align 1
@.str.1 = private unnamed_addr constant [4 x i8] c"%d\0A\00", align 1
@.str.2 = private unnamed_addr constant [5 x i8] c"\0A%d\0A\00", align 1

; Function Attrs: noinline nounwind uwtable
define dso_local i32 @main() #0 {
  %1 = alloca i32, align 4
  %2 = alloca i32, align 4
  %3 = alloca i32, align 4
  %4 = alloca i32, align 4
  %5 = alloca i32, align 4
  %6 = alloca [12 x i32], align 16
  store i32 0, i32* %1, align 4
  %7 = bitcast [12 x i32]* %6 to i8*
  call void @llvm.memcpy.p0i8.p0i8.i64(i8* align 16 %7, i8* align 16 bitcast ([12 x i32]* @__const.main.a to i8*), i64 48, i1 false)
  %8 = call i32 (i8*, ...) @__isoc99_scanf(i8* getelementptr inbounds ([3 x i8], [3 x i8]* @.str, i64 0, i64 0), i32* %2)
  store i32 0, i32* %3, align 4
  store i32 0, i32* %5, align 4
  br label %9

9:                                                ; preds = %41, %0
  %10 = load i32, i32* %3, align 4
  %11 = icmp slt i32 %10, 12
  br i1 %11, label %12, label %44

12:                                               ; preds = %9
  %13 = load i32, i32* %3, align 4
  %14 = sext i32 %13 to i64
  %15 = getelementptr inbounds [12 x i32], [12 x i32]* %6, i64 0, i64 %14
  %16 = load i32, i32* %15, align 4
  %17 = srem i32 %16, 7
  %18 = load i32, i32* %2, align 4
  %19 = add nsw i32 %17, %18
  store i32 %19, i32* %4, align 4
  %20 = load i32, i32* %4, align 4
  %21 = icmp sgt i32 %20, 7
  br i1 %21, label %22, label %25

22:                                               ; preds = %12
  %23 = load i32, i32* %4, align 4
  %24 = sub nsw i32 %23, 7
  store i32 %24, i32* %4, align 4
  br label %25

25:                                               ; preds = %22, %12
  %26 = load i32, i32* %4, align 4
  %27 = icmp eq i32 %26, 5
  br i1 %27, label %28, label %40

28:                                               ; preds = %25
  %29 = load i32, i32* %5, align 4
  %30 = icmp eq i32 %29, 0
  br i1 %30, label %31, label %35

31:                                               ; preds = %28
  %32 = load i32, i32* %3, align 4
  %33 = add nsw i32 %32, 1
  %34 = call i32 (i8*, ...) @printf(i8* getelementptr inbounds ([4 x i8], [4 x i8]* @.str.1, i64 0, i64 0), i32 %33)
  br label %39

35:                                               ; preds = %28
  %36 = load i32, i32* %3, align 4
  %37 = add nsw i32 %36, 1
  %38 = call i32 (i8*, ...) @printf(i8* getelementptr inbounds ([5 x i8], [5 x i8]* @.str.2, i64 0, i64 0), i32 %37)
  br label %39

39:                                               ; preds = %35, %31
  br label %40

40:                                               ; preds = %39, %25
  br label %41

41:                                               ; preds = %40
  %42 = load i32, i32* %3, align 4
  %43 = add nsw i32 %42, 1
  store i32 %43, i32* %3, align 4
  br label %9

44:                                               ; preds = %9
  ret i32 0
}

; Function Attrs: argmemonly nounwind willreturn
declare void @llvm.memcpy.p0i8.p0i8.i64(i8* noalias nocapture writeonly, i8* noalias nocapture readonly, i64, i1 immarg) #1

declare dso_local i32 @__isoc99_scanf(i8*, ...) #2

declare dso_local i32 @printf(i8*, ...) #2


!llvm.module.flags = !{!0}
!llvm.ident = !{!1}

!0 = !{i32 1, !"wchar_size", i32 4}
!1 = !{!"clang version 10.0.0-4ubuntu1 "}
